target datalayout = "e-m:e-p270:32:32-p271:32:32-p272:64:64-i64:64-i128:128-f80:128-n8:16:32:64-S128"
target triple = "x86_64-pc-linux-gnu"

; Function Attrs: nounwind uwtable
define hidden i64 @SDL_TimeFromWindows_REAL(i32 noundef %0, i32 noundef %1) #0 {
  %3 = alloca i32, align 4
  %4 = alloca i32, align 4
  %5 = alloca i64, align 8
  store i32 %0, ptr %3, align 4
  store i32 %1, ptr %4, align 4
  call void @llvm.lifetime.start.p0(i64 8, ptr %5) #3
  %6 = load i32, ptr %4, align 4
  %7 = zext i32 %6 to i64
  %8 = shl i64 %7, 32
  %9 = load i32, ptr %3, align 4
  %10 = zext i32 %9 to i64
  %11 = or i64 %8, %10
  store i64 %11, ptr %5, align 8
  %12 = load i64, ptr %5, align 8
  %13 = icmp ult i64 %12, 24211015631452242
  br i1 %13, label %14, label %15

14:                                               ; preds = %2
  br label %23

15:                                               ; preds = %2
  %16 = load i64, ptr %5, align 8
  %17 = icmp ugt i64 %16, 208678456368547758
  br i1 %17, label %18, label %19

18:                                               ; preds = %15
  br label %21

19:                                               ; preds = %15
  %20 = load i64, ptr %5, align 8
  br label %21

21:                                               ; preds = %19, %18
  %22 = phi i64 [ 208678456368547758, %18 ], [ %20, %19 ]
  br label %23

23:                                               ; preds = %21, %14
  %24 = phi i64 [ 24211015631452242, %14 ], [ %22, %21 ]
  store i64 %24, ptr %5, align 8
  %25 = load i64, ptr %5, align 8
  %26 = sub i64 %25, 116444736000000000
  %27 = mul nsw i64 %26, 100
  call void @llvm.lifetime.end.p0(i64 8, ptr %5) #3
  ret i64 %27
}