; Function Attrs: mustprogress nofree norecurse nosync nounwind willreturn memory(none) uwtable
define hidden range(i64 -9223372036854775800, 9223372036854775801) i64 @SDL_TimeFromWindows_REAL(i32 noundef %0, i32 noundef %1) local_unnamed_addr #3 {
  %3 = zext i32 %1 to i64
  %4 = shl nuw i64 %3, 32
  %5 = zext i32 %0 to i64
  %6 = or disjoint i64 %4, %5
  %7 = tail call i64 @llvm.umax.i64(i64 %6, i64 24211015631452242)
  %8 = tail call i64 @llvm.umin.i64(i64 %7, i64 208678456368547758)
  %9 = mul i64 %8, 100
  %10 = add i64 %9, 6802270473709551616
  ret i64 %10
}